; Function Attrs: nounwind uwtable
define i32 @Java_sun_nio_fs_UnixNativeDispatcher_openat0(ptr noundef %0, ptr nocapture noundef readnone %1, i32 noundef %2, i64 noundef %3, i32 noundef %4, i32 noundef %5) local_unnamed_addr #0 {
  %7 = inttoptr i64 %3 to ptr
  %8 = load ptr, ptr @my_openat_func, align 8
  %9 = icmp eq ptr %8, null
  br i1 %9, label %10, label %.preheader

10:                                               ; preds = %6
  tail call void @JNU_ThrowInternalError(ptr noundef %0, ptr noundef nonnull @.str.40) #11
  br label %.critedge10

.preheader:                                       ; preds = %6, %14
  %11 = load ptr, ptr @my_openat_func, align 8
  %12 = tail call i32 (i32, ptr, i32, ...) %11(i32 noundef %2, ptr noundef %7, i32 noundef %4, i32 noundef %5) #11
  %13 = icmp eq i32 %12, -1
  br i1 %13, label %14, label %.critedge10

14:                                               ; preds = %.preheader
  %15 = tail call ptr @__errno_location() #12
  %16 = load i32, ptr %15, align 4
  %17 = icmp eq i32 %16, 4
  br i1 %17, label %.preheader, label %.critedge, !llvm.loop !9

.critedge:                                        ; preds = %14
  %18 = tail call ptr (ptr, ptr, ptr, ...) @JNU_NewObjectByName(ptr noundef %0, ptr noundef nonnull @.str.46, ptr noundef nonnull @.str.47, i32 noundef %16) #11
  %.not.i = icmp eq ptr %18, null
  br i1 %.not.i, label %.critedge10, label %19

19:                                               ; preds = %.critedge
  %20 = load ptr, ptr %0, align 8
  %21 = getelementptr inbounds i8, ptr %20, i64 104
  %22 = load ptr, ptr %21, align 8
  %23 = tail call i32 %22(ptr noundef nonnull %0, ptr noundef nonnull %18) #11
  br label %.critedge10

.critedge10:                                      ; preds = %.preheader, %19, %.critedge, %10
  %.0 = phi i32 [ -1, %10 ], [ -1, %.critedge ], [ -1, %19 ], [ %12, %.preheader ]
  ret i32 %.0
}